target datalayout = "e-m:e-p270:32:32-p271:32:32-p272:64:64-i64:64-i128:128-f80:128-n8:16:32:64-S128"
target triple = "x86_64-pc-linux-gnu"

%struct.psa_key_attributes_s = type { i16, i16, i32, %struct.psa_key_policy_s, i32 }
%struct.psa_key_policy_s = type { i32, i32, i32 }
%struct.mbedtls_psa_cipher_operation_t = type { i32, i8, i8, %union.anon }
%union.anon = type { %struct.mbedtls_cipher_context_t }
%struct.mbedtls_cipher_context_t = type { ptr, i32, i32, ptr, ptr, [16 x i8], i64, [16 x i8], i64, ptr, ptr }

; Function Attrs: nounwind uwtable
define hidden ptr @mbedtls_cipher_info_from_psa(i32 noundef %0, i16 noundef zeroext %1, i64 noundef %2, ptr noundef %3) #0 {
  %5 = alloca ptr, align 8
  %6 = alloca i32, align 4
  %7 = alloca i16, align 2
  %8 = alloca i64, align 8
  %9 = alloca ptr, align 8
  %10 = alloca i32, align 4
  %11 = alloca i32, align 4
  %12 = alloca i32, align 4
  %13 = alloca i32, align 4
  store i32 %0, ptr %6, align 4, !tbaa !3
  store i16 %1, ptr %7, align 2, !tbaa !7
  store i64 %2, ptr %8, align 8, !tbaa !13
  store ptr %3, ptr %9, align 8, !tbaa !12
  call void @llvm.lifetime.start.p0(i64 4, ptr %10) #7
  call void @llvm.lifetime.start.p0(i64 4, ptr %11) #7
  call void @llvm.lifetime.start.p0(i64 4, ptr %12) #7
  store i32 0, ptr %12, align 4, !tbaa !3
  %14 = load i32, ptr %6, align 4, !tbaa !3
  %15 = load i16, ptr %7, align 2, !tbaa !7
  %16 = call i32 @mbedtls_cipher_values_from_psa(i32 noundef %14, i16 noundef zeroext %15, ptr noundef %8, ptr noundef %10, ptr noundef %12)
  store i32 %16, ptr %11, align 4, !tbaa !3
  %17 = load i32, ptr %11, align 4, !tbaa !3
  %18 = icmp ne i32 %17, 0
  br i1 %18, label %19, label %20

19:                                               ; preds = %4
  store ptr null, ptr %5, align 8
  store i32 1, ptr %13, align 4
  br label %32

20:                                               ; preds = %4
  %21 = load ptr, ptr %9, align 8, !tbaa !12
  %22 = icmp ne ptr %21, null
  br i1 %22, label %23, label %26

23:                                               ; preds = %20
  %24 = load i32, ptr %12, align 4, !tbaa !3
  %25 = load ptr, ptr %9, align 8, !tbaa !12
  store i32 %24, ptr %25, align 4, !tbaa !3
  br label %26

26:                                               ; preds = %23, %20
  %27 = load i32, ptr %12, align 4, !tbaa !3
  %28 = load i64, ptr %8, align 8, !tbaa !13
  %29 = trunc i64 %28 to i32
  %30 = load i32, ptr %10, align 4, !tbaa !3
  %31 = call ptr @mbedtls_cipher_info_from_values(i32 noundef %27, i32 noundef %29, i32 noundef %30)
  store ptr %31, ptr %5, align 8
  store i32 1, ptr %13, align 4
  br label %32

32:                                               ; preds = %26, %19
  call void @llvm.lifetime.end.p0(i64 4, ptr %12) #7
  call void @llvm.lifetime.end.p0(i64 4, ptr %11) #7
  call void @llvm.lifetime.end.p0(i64 4, ptr %10) #7
  %33 = load ptr, ptr %5, align 8
  ret ptr %33
}

; Function Attrs: nounwind uwtable
define internal i32 @psa_cipher_setup(ptr noundef %0, ptr noundef %1, ptr noundef %2, i64 noundef %3, i32 noundef %4, i32 noundef %5) #0 {
  %7 = alloca i32, align 4
  %8 = alloca ptr, align 8
  %9 = alloca ptr, align 8
  %10 = alloca ptr, align 8
  %11 = alloca i64, align 8
  %12 = alloca i32, align 4
  %13 = alloca i32, align 4
  %14 = alloca i32, align 4
  %15 = alloca i64, align 8
  %16 = alloca ptr, align 8
  %17 = alloca i16, align 2
  %18 = alloca i32, align 4
  %19 = alloca [24 x i8], align 16
  store ptr %0, ptr %8, align 8, !tbaa !12
  store ptr %1, ptr %9, align 8, !tbaa !15
  store ptr %2, ptr %10, align 8, !tbaa !17
  store i64 %3, ptr %11, align 8, !tbaa !13
  store i32 %4, ptr %12, align 4, !tbaa !3
  store i32 %5, ptr %13, align 4, !tbaa !3
  call void @llvm.lifetime.start.p0(i64 4, ptr %14) #7
  store i32 0, ptr %14, align 4, !tbaa !3
  call void @llvm.lifetime.start.p0(i64 8, ptr %15) #7
  call void @llvm.lifetime.start.p0(i64 8, ptr %16) #7
  store ptr null, ptr %16, align 8, !tbaa !19
  call void @llvm.lifetime.start.p0(i64 2, ptr %17) #7
  %20 = load ptr, ptr %9, align 8, !tbaa !15
  %21 = getelementptr inbounds nuw %struct.psa_key_attributes_s, ptr %20, i32 0, i32 0
  %22 = load i16, ptr %21, align 4, !tbaa !21
  store i16 %22, ptr %17, align 2, !tbaa !7
  %23 = load ptr, ptr %8, align 8, !tbaa !12
  %24 = getelementptr inbounds nuw %struct.mbedtls_psa_cipher_operation_t, ptr %23, i32 0, i32 3
  call void @mbedtls_cipher_init(ptr noundef %24)
  %25 = load i32, ptr %12, align 4, !tbaa !3
  %26 = load ptr, ptr %8, align 8, !tbaa !12
  %27 = getelementptr inbounds nuw %struct.mbedtls_psa_cipher_operation_t, ptr %26, i32 0, i32 0
  store i32 %25, ptr %27, align 8, !tbaa !24
  %28 = load ptr, ptr %9, align 8, !tbaa !15
  %29 = getelementptr inbounds nuw %struct.psa_key_attributes_s, ptr %28, i32 0, i32 1
  %30 = load i16, ptr %29, align 2, !tbaa !26
  %31 = zext i16 %30 to i64
  store i64 %31, ptr %15, align 8, !tbaa !13
  %32 = load i32, ptr %12, align 4, !tbaa !3
  %33 = load i16, ptr %17, align 2, !tbaa !7
  %34 = load i64, ptr %15, align 8, !tbaa !13
  %35 = call ptr @mbedtls_cipher_info_from_psa(i32 noundef %32, i16 noundef zeroext %33, i64 noundef %34, ptr noundef null)
  store ptr %35, ptr %16, align 8, !tbaa !19
  %36 = load ptr, ptr %16, align 8, !tbaa !19
  %37 = icmp eq ptr %36, null
  br i1 %37, label %38, label %39

38:                                               ; preds = %6
  store i32 -134, ptr %7, align 4
  store i32 1, ptr %18, align 4
  br label %184

39:                                               ; preds = %6
  %40 = load ptr, ptr %8, align 8, !tbaa !12
  %41 = getelementptr inbounds nuw %struct.mbedtls_psa_cipher_operation_t, ptr %40, i32 0, i32 3
  %42 = load ptr, ptr %16, align 8, !tbaa !19
  %43 = call i32 @mbedtls_cipher_setup(ptr noundef %41, ptr noundef %42)
  store i32 %43, ptr %14, align 4, !tbaa !3
  %44 = load i32, ptr %14, align 4, !tbaa !3
  %45 = icmp ne i32 %44, 0
  br i1 %45, label %46, label %47

46:                                               ; preds = %39
  br label %181

47:                                               ; preds = %39
  %48 = load i16, ptr %17, align 2, !tbaa !7
  %49 = zext i16 %48 to i32
  %50 = icmp eq i32 %49, 8961
  br i1 %50, label %51, label %65

51:                                               ; preds = %47
  %52 = load i64, ptr %15, align 8, !tbaa !13
  %53 = icmp eq i64 %52, 128
  br i1 %53, label %54, label %65

54:                                               ; preds = %51
  call void @llvm.lifetime.start.p0(i64 24, ptr %19) #7
  %55 = getelementptr inbounds [24 x i8], ptr %19, i64 0, i64 0
  %56 = load ptr, ptr %10, align 8, !tbaa !17
  call void @llvm.memcpy.p0.p0.i64(ptr align 16 %55, ptr align 1 %56, i64 16, i1 false)
  %57 = getelementptr inbounds [24 x i8], ptr %19, i64 0, i64 0
  %58 = getelementptr inbounds i8, ptr %57, i64 16
  %59 = load ptr, ptr %10, align 8, !tbaa !17
  call void @llvm.memcpy.p0.p0.i64(ptr align 1 %58, ptr align 1 %59, i64 8, i1 false)
  %60 = load ptr, ptr %8, align 8, !tbaa !12
  %61 = getelementptr inbounds nuw %struct.mbedtls_psa_cipher_operation_t, ptr %60, i32 0, i32 3
  %62 = getelementptr inbounds [24 x i8], ptr %19, i64 0, i64 0
  %63 = load i32, ptr %13, align 4, !tbaa !3
  %64 = call i32 @mbedtls_cipher_setkey(ptr noundef %61, ptr noundef %62, i32 noundef 192, i32 noundef %63)
  store i32 %64, ptr %14, align 4, !tbaa !3
  call void @llvm.lifetime.end.p0(i64 24, ptr %19) #7
  br label %73

65:                                               ; preds = %51, %47
  %66 = load ptr, ptr %8, align 8, !tbaa !12
  %67 = getelementptr inbounds nuw %struct.mbedtls_psa_cipher_operation_t, ptr %66, i32 0, i32 3
  %68 = load ptr, ptr %10, align 8, !tbaa !17
  %69 = load i64, ptr %15, align 8, !tbaa !13
  %70 = trunc i64 %69 to i32
  %71 = load i32, ptr %13, align 4, !tbaa !3
  %72 = call i32 @mbedtls_cipher_setkey(ptr noundef %67, ptr noundef %68, i32 noundef %70, i32 noundef %71)
  store i32 %72, ptr %14, align 4, !tbaa !3
  br label %73

73:                                               ; preds = %65, %54
  %74 = load i32, ptr %14, align 4, !tbaa !3
  %75 = icmp ne i32 %74, 0
  br i1 %75, label %76, label %77

76:                                               ; preds = %73
  br label %181

77:                                               ; preds = %73
  %78 = load i32, ptr %12, align 4, !tbaa !3
  switch i32 %78, label %87 [
    i32 71319552, label %79
    i32 71319808, label %83
  ]

79:                                               ; preds = %77
  %80 = load ptr, ptr %8, align 8, !tbaa !12
  %81 = getelementptr inbounds nuw %struct.mbedtls_psa_cipher_operation_t, ptr %80, i32 0, i32 3
  %82 = call i32 @mbedtls_cipher_set_padding_mode(ptr noundef %81, i32 noundef 4)
  store i32 %82, ptr %14, align 4, !tbaa !3
  br label %88

83:                                               ; preds = %77
  %84 = load ptr, ptr %8, align 8, !tbaa !12
  %85 = getelementptr inbounds nuw %struct.mbedtls_psa_cipher_operation_t, ptr %84, i32 0, i32 3
  %86 = call i32 @mbedtls_cipher_set_padding_mode(ptr noundef %85, i32 noundef 0)
  store i32 %86, ptr %14, align 4, !tbaa !3
  br label %88

87:                                               ; preds = %77
  store i32 0, ptr %14, align 4, !tbaa !3
  br label %88

88:                                               ; preds = %87, %83, %79
  %89 = load i32, ptr %14, align 4, !tbaa !3
  %90 = icmp ne i32 %89, 0
  br i1 %90, label %91, label %92

91:                                               ; preds = %88
  br label %181

92:                                               ; preds = %88
  %93 = load i32, ptr %12, align 4, !tbaa !3
  %94 = and i32 %93, 2139095040
  %95 = icmp eq i32 %94, 75497472
  br i1 %95, label %96, label %97

96:                                               ; preds = %92
  br label %111

97:                                               ; preds = %92
  %98 = load i16, ptr %17, align 2, !tbaa !7
  %99 = zext i16 %98 to i32
  %100 = and i32 %99, 28672
  %101 = icmp eq i32 %100, 8192
  br i1 %101, label %102, label %108

102:                                              ; preds = %97
  %103 = load i16, ptr %17, align 2, !tbaa !7
  %104 = zext i16 %103 to i32
  %105 = ashr i32 %104, 8
  %106 = and i32 %105, 7
  %107 = shl i32 1, %106
  br label %109

108:                                              ; preds = %97
  br label %109

109:                                              ; preds = %108, %102
  %110 = phi i32 [ %107, %102 ], [ 0, %108 ]
  br label %111

111:                                              ; preds = %109, %96
  %112 = phi i32 [ 1, %96 ], [ %110, %109 ]
  %113 = trunc i32 %112 to i8
  %114 = load ptr, ptr %8, align 8, !tbaa !12
  %115 = getelementptr inbounds nuw %struct.mbedtls_psa_cipher_operation_t, ptr %114, i32 0, i32 2
  store i8 %113, ptr %115, align 1, !tbaa !27
  %116 = load i16, ptr %17, align 2, !tbaa !7
  %117 = zext i16 %116 to i32
  %118 = and i32 %117, 28672
  %119 = icmp eq i32 %118, 8192
  br i1 %119, label %120, label %126

120:                                              ; preds = %111
  %121 = load i16, ptr %17, align 2, !tbaa !7
  %122 = zext i16 %121 to i32
  %123 = ashr i32 %122, 8
  %124 = and i32 %123, 7
  %125 = shl i32 1, %124
  br label %127

126:                                              ; preds = %111
  br label %127

127:                                              ; preds = %126, %120
  %128 = phi i32 [ %125, %120 ], [ 0, %126 ]
  %129 = icmp ugt i32 %128, 1
  br i1 %129, label %130, label %162

130:                                              ; preds = %127
  %131 = load i32, ptr %12, align 4, !tbaa !3
  %132 = icmp eq i32 %131, 79695872
  br i1 %132, label %148, label %133

133:                                              ; preds = %130
  %134 = load i32, ptr %12, align 4, !tbaa !3
  %135 = icmp eq i32 %134, 79696128
  br i1 %135, label %148, label %136

136:                                              ; preds = %133
  %137 = load i32, ptr %12, align 4, !tbaa !3
  %138 = icmp eq i32 %137, 79696384
  br i1 %138, label %148, label %139

139:                                              ; preds = %136
  %140 = load i32, ptr %12, align 4, !tbaa !3
  %141 = icmp eq i32 %140, 71368448
  br i1 %141, label %148, label %142

142:                                              ; preds = %139
  %143 = load i32, ptr %12, align 4, !tbaa !3
  %144 = icmp eq i32 %143, 71319552
  br i1 %144, label %148, label %145

145:                                              ; preds = %142
  %146 = load i32, ptr %12, align 4, !tbaa !3
  %147 = icmp eq i32 %146, 71319808
  br i1 %147, label %148, label %162

148:                                              ; preds = %145, %142, %139, %136, %133, %130
  %149 = load i16, ptr %17, align 2, !tbaa !7
  %150 = zext i16 %149 to i32
  %151 = and i32 %150, 28672
  %152 = icmp eq i32 %151, 8192
  br i1 %152, label %153, label %159

153:                                              ; preds = %148
  %154 = load i16, ptr %17, align 2, !tbaa !7
  %155 = zext i16 %154 to i32
  %156 = ashr i32 %155, 8
  %157 = and i32 %156, 7
  %158 = shl i32 1, %157
  br label %160

159:                                              ; preds = %148
  br label %160

160:                                              ; preds = %159, %153
  %161 = phi i32 [ %158, %153 ], [ 0, %159 ]
  br label %176

162:                                              ; preds = %145, %127
  %163 = load i16, ptr %17, align 2, !tbaa !7
  %164 = zext i16 %163 to i32
  %165 = icmp eq i32 %164, 8196
  br i1 %165, label %166, label %170

166:                                              ; preds = %162
  %167 = load i32, ptr %12, align 4, !tbaa !3
  %168 = icmp eq i32 %167, 75497728
  br i1 %168, label %169, label %170

169:                                              ; preds = %166
  br label %174

170:                                              ; preds = %166, %162
  %171 = load i32, ptr %12, align 4, !tbaa !3
  %172 = icmp eq i32 %171, 79696640
  %173 = select i1 %172, i32 13, i32 0
  br label %174

174:                                              ; preds = %170, %169
  %175 = phi i32 [ 12, %169 ], [ %173, %170 ]
  br label %176

176:                                              ; preds = %174, %160
  %177 = phi i32 [ %161, %160 ], [ %175, %174 ]
  %178 = trunc i32 %177 to i8
  %179 = load ptr, ptr %8, align 8, !tbaa !12
  %180 = getelementptr inbounds nuw %struct.mbedtls_psa_cipher_operation_t, ptr %179, i32 0, i32 1
  store i8 %178, ptr %180, align 4, !tbaa !28
  br label %181

181:                                              ; preds = %176, %91, %76, %46
  %182 = load i32, ptr %14, align 4, !tbaa !3
  %183 = call i32 @mbedtls_to_psa_error(i32 noundef %182)
  store i32 %183, ptr %7, align 4
  store i32 1, ptr %18, align 4
  br label %184

184:                                              ; preds = %181, %38
  call void @llvm.lifetime.end.p0(i64 2, ptr %17) #7
  call void @llvm.lifetime.end.p0(i64 8, ptr %16) #7
  call void @llvm.lifetime.end.p0(i64 8, ptr %15) #7
  call void @llvm.lifetime.end.p0(i64 4, ptr %14) #7
  %185 = load i32, ptr %7, align 4
  ret i32 %185
}