; Function Attrs: nounwind uwtable
define internal fastcc i32 @psa_cipher_setup(ptr noundef %0, ptr noundef readonly captures(none) %1, ptr noundef %2, i32 noundef %3, i32 noundef range(i32 0, 2) %4) unnamed_addr #2 {
  %6 = alloca i64, align 8
  %7 = alloca i32, align 4
  %8 = alloca i32, align 4
  %9 = alloca [24 x i8], align 16
  %10 = load i16, ptr %1, align 4, !tbaa !9
  %11 = getelementptr inbounds nuw i8, ptr %0, i64 8
  tail call void @mbedtls_cipher_init(ptr noundef nonnull %11) #8
  store i32 %3, ptr %0, align 8, !tbaa !13
  %12 = getelementptr inbounds nuw i8, ptr %1, i64 2
  %13 = load i16, ptr %12, align 2, !tbaa !15
  %14 = zext i16 %13 to i64
  call void @llvm.lifetime.start.p0(i64 8, ptr nonnull %6)
  store i64 %14, ptr %6, align 8, !tbaa !7
  call void @llvm.lifetime.start.p0(i64 4, ptr nonnull %7) #8
  call void @llvm.lifetime.start.p0(i64 4, ptr nonnull %8) #8
  store i32 0, ptr %8, align 4, !tbaa !3
  %15 = call i32 @mbedtls_cipher_values_from_psa(i32 noundef %3, i16 noundef zeroext %10, ptr noundef nonnull %6, ptr noundef nonnull %7, ptr noundef nonnull %8)
  %.not.i = icmp eq i32 %15, 0
  br i1 %.not.i, label %mbedtls_cipher_info_from_psa.exit, label %mbedtls_cipher_info_from_psa.exit.thread

mbedtls_cipher_info_from_psa.exit.thread:         ; preds = %5
  call void @llvm.lifetime.end.p0(i64 4, ptr nonnull %8) #8
  call void @llvm.lifetime.end.p0(i64 4, ptr nonnull %7) #8
  call void @llvm.lifetime.end.p0(i64 8, ptr nonnull %6)
  br label %69

mbedtls_cipher_info_from_psa.exit:                ; preds = %5
  %.pre.i = load i32, ptr %8, align 4, !tbaa !3
  %16 = load i64, ptr %6, align 8, !tbaa !7
  %17 = trunc i64 %16 to i32
  %18 = load i32, ptr %7, align 4, !tbaa !3
  %19 = call ptr @mbedtls_cipher_info_from_values(i32 noundef %.pre.i, i32 noundef %17, i32 noundef %18) #8
  call void @llvm.lifetime.end.p0(i64 4, ptr nonnull %8) #8
  call void @llvm.lifetime.end.p0(i64 4, ptr nonnull %7) #8
  call void @llvm.lifetime.end.p0(i64 8, ptr nonnull %6)
  %20 = icmp eq ptr %19, null
  br i1 %20, label %69, label %21

21:                                               ; preds = %mbedtls_cipher_info_from_psa.exit
  %22 = call i32 @mbedtls_cipher_setup(ptr noundef nonnull %11, ptr noundef nonnull %19) #8
  %.not = icmp eq i32 %22, 0
  br i1 %.not, label %23, label %67

23:                                               ; preds = %21
  %24 = zext i16 %10 to i32
  %25 = icmp eq i16 %10, 8961
  %26 = icmp eq i16 %13, 128
  %or.cond = and i1 %25, %26
  br i1 %or.cond, label %27, label %31

27:                                               ; preds = %23
  call void @llvm.lifetime.start.p0(i64 24, ptr nonnull %9) #8
  call void @llvm.memcpy.p0.p0.i64(ptr noundef nonnull align 16 dereferenceable(16) %9, ptr noundef nonnull align 1 dereferenceable(16) %2, i64 16, i1 false)
  %28 = getelementptr inbounds nuw i8, ptr %9, i64 16
  %29 = load i64, ptr %2, align 1
  store i64 %29, ptr %28, align 16
  %30 = call i32 @mbedtls_cipher_setkey(ptr noundef nonnull %11, ptr noundef nonnull %9, i32 noundef 192, i32 noundef %4) #8
  call void @llvm.lifetime.end.p0(i64 24, ptr nonnull %9) #8
  br label %34

31:                                               ; preds = %23
  %32 = zext i16 %13 to i32
  %33 = call i32 @mbedtls_cipher_setkey(ptr noundef nonnull %11, ptr noundef %2, i32 noundef %32, i32 noundef %4) #8
  br label %34

34:                                               ; preds = %31, %27
  %.1 = phi i32 [ %30, %27 ], [ %33, %31 ]
  %.not63 = icmp eq i32 %.1, 0
  br i1 %.not63, label %35, label %67

35:                                               ; preds = %34
  switch i32 %3, label %.thread [
    i32 71319552, label %37
    i32 71319808, label %36
  ]

36:                                               ; preds = %35
  br label %37

37:                                               ; preds = %35, %36
  %.sink = phi i32 [ 0, %36 ], [ 4, %35 ]
  %38 = call i32 @mbedtls_cipher_set_padding_mode(ptr noundef nonnull %11, i32 noundef %.sink) #8
  %.not64 = icmp eq i32 %38, 0
  br i1 %.not64, label %.thread, label %67

.thread:                                          ; preds = %35, %37
  %39 = and i32 %3, 2139095040
  %40 = icmp eq i32 %39, 75497472
  %.pre = and i32 %24, 28672
  br i1 %40, label %.thread._crit_edge, label %41

41:                                               ; preds = %.thread
  %42 = icmp eq i32 %.pre, 8192
  %43 = lshr i16 %10, 8
  %44 = and i16 %43, 7
  %45 = shl nuw nsw i16 1, %44
  %46 = trunc nuw i16 %45 to i8
  %47 = select i1 %42, i8 %46, i8 0
  br label %.thread._crit_edge

.thread._crit_edge:                               ; preds = %.thread, %41
  %48 = phi i8 [ %47, %41 ], [ 1, %.thread ]
  %49 = getelementptr inbounds nuw i8, ptr %0, i64 5
  store i8 %48, ptr %49, align 1, !tbaa !16
  %50 = icmp eq i32 %.pre, 8192
  %51 = lshr i32 %24, 8
  %52 = and i32 %51, 7
  %53 = icmp ne i32 %52, 0
  %54 = select i1 %50, i1 %53, i1 false
  br i1 %54, label %55, label %57

55:                                               ; preds = %.thread._crit_edge
  %56 = shl nuw nsw i32 1, %52
  switch i32 %3, label %57 [
    i32 79696384, label %63
    i32 79696128, label %63
    i32 79695872, label %63
    i32 71368448, label %63
    i32 71319808, label %63
    i32 71319552, label %63
  ]

57:                                               ; preds = %55, %.thread._crit_edge
  %58 = icmp eq i16 %10, 8196
  %59 = icmp eq i32 %3, 75497728
  %or.cond13 = and i1 %59, %58
  %60 = icmp eq i32 %3, 79696640
  %61 = select i1 %60, i32 13, i32 0
  %62 = select i1 %or.cond13, i32 12, i32 %61
  br label %63

63:                                               ; preds = %55, %55, %55, %55, %55, %55, %57
  %64 = phi i32 [ %62, %57 ], [ %56, %55 ], [ %56, %55 ], [ %56, %55 ], [ %56, %55 ], [ %56, %55 ], [ %56, %55 ]
  %65 = trunc nuw i32 %64 to i8
  %66 = getelementptr inbounds nuw i8, ptr %0, i64 4
  store i8 %65, ptr %66, align 4, !tbaa !17
  br label %67

67:                                               ; preds = %37, %34, %21, %63
  %.059 = phi i32 [ %22, %21 ], [ %.1, %34 ], [ %38, %37 ], [ 0, %63 ]
  %68 = call i32 @mbedtls_to_psa_error(i32 noundef %.059) #8
  br label %69

69:                                               ; preds = %mbedtls_cipher_info_from_psa.exit.thread, %mbedtls_cipher_info_from_psa.exit, %67
  %.0 = phi i32 [ %68, %67 ], [ -134, %mbedtls_cipher_info_from_psa.exit ], [ -134, %mbedtls_cipher_info_from_psa.exit.thread ]
  ret i32 %.0
}